target datalayout = "e-m:e-p270:32:32-p271:32:32-p272:64:64-i64:64-i128:128-f80:128-n8:16:32:64-S128"
target triple = "x86_64-pc-linux-gnu"

%struct._object = type { %union.anon.41, ptr }
%union.anon.41 = type { i64 }
%struct.PyVarObject = type { %struct._object, i64 }
%struct.PyASCIIObject = type { %struct._object, i64, i64, %struct.anon.46 }
%struct.anon.46 = type { i16, i16 }
%struct.PyCompactUnicodeObject = type { %struct.PyASCIIObject, i64, ptr }
%struct._typeobject = type { %struct.PyVarObject, ptr, i64, i64, ptr, i64, ptr, ptr, ptr, ptr, ptr, ptr, ptr, ptr, ptr, ptr, ptr, ptr, ptr, i64, ptr, ptr, ptr, ptr, i64, ptr, ptr, ptr, ptr, ptr, ptr, ptr, ptr, ptr, i64, ptr, ptr, ptr, ptr, ptr, ptr, ptr, ptr, ptr, ptr, ptr, i32, ptr, ptr, i8, i16 }
%struct.PyUnicodeObject = type { %struct.PyCompactUnicodeObject, %union.anon.806 }
%union.anon.806 = type { ptr }

@.str.8 = private unnamed_addr constant [35 x i8] c"../cpython/Objects/unicodeobject.c\00", align 1
@.str.322 = private unnamed_addr constant [4 x i8] c"(N)\00", align 1

; Function Attrs: inlinehint nounwind uwtable
define internal ptr @_PyUnicode_NONCOMPACT_DATA(ptr noundef %0) #2 {
  %2 = alloca ptr, align 8
  %3 = alloca ptr, align 8
  store ptr %0, ptr %2, align 8, !tbaa !4
  call void @llvm.lifetime.start.p0(i64 8, ptr %3) #12
  %4 = load ptr, ptr %2, align 8, !tbaa !4
  %5 = getelementptr inbounds nuw %struct.PyUnicodeObject, ptr %4, i32 0, i32 1
  %6 = load ptr, ptr %5, align 8, !tbaa !191
  store ptr %6, ptr %3, align 8, !tbaa !180
  %7 = load ptr, ptr %3, align 8, !tbaa !180
  call void @llvm.lifetime.end.p0(i64 8, ptr %3) #12
  ret ptr %7
}

; Function Attrs: inlinehint nounwind uwtable
define internal ptr @_PyUnicode_COMPACT_DATA(ptr noundef %0) #2 {
  %2 = alloca ptr, align 8
  %3 = alloca ptr, align 8
  store ptr %0, ptr %3, align 8, !tbaa !4
  %4 = load ptr, ptr %3, align 8, !tbaa !4
  %5 = call i32 @PyUnicode_IS_ASCII(ptr noundef %4)
  %6 = icmp ne i32 %5, 0
  br i1 %6, label %7, label %10

7:                                                ; preds = %1
  %8 = load ptr, ptr %3, align 8, !tbaa !4
  %9 = getelementptr %struct.PyASCIIObject, ptr %8, i64 1
  store ptr %9, ptr %2, align 8
  br label %13

10:                                               ; preds = %1
  %11 = load ptr, ptr %3, align 8, !tbaa !4
  %12 = getelementptr %struct.PyCompactUnicodeObject, ptr %11, i64 1
  store ptr %12, ptr %2, align 8
  br label %13

13:                                               ; preds = %10, %7
  %14 = load ptr, ptr %2, align 8
  ret ptr %14
}

; Function Attrs: inlinehint nounwind uwtable
define internal i32 @PyUnicode_IS_COMPACT(ptr noundef %0) #2 {
  %2 = alloca ptr, align 8
  store ptr %0, ptr %2, align 8, !tbaa !4
  %3 = load ptr, ptr %2, align 8, !tbaa !4
  %4 = getelementptr inbounds nuw %struct.PyASCIIObject, ptr %3, i32 0, i32 3
  %5 = getelementptr inbounds nuw %struct.anon.46, ptr %4, i32 0, i32 1
  %6 = load i16, ptr %5, align 2
  %7 = lshr i16 %6, 3
  %8 = and i16 %7, 1
  %9 = zext i16 %8 to i32
  ret i32 %9
}

; Function Attrs: inlinehint nounwind uwtable
define internal i32 @PyUnicode_IS_ASCII(ptr noundef %0) #2 {
  %2 = alloca ptr, align 8
  store ptr %0, ptr %2, align 8, !tbaa !4
  %3 = load ptr, ptr %2, align 8, !tbaa !4
  %4 = getelementptr inbounds nuw %struct.PyASCIIObject, ptr %3, i32 0, i32 3
  %5 = getelementptr inbounds nuw %struct.anon.46, ptr %4, i32 0, i32 1
  %6 = load i16, ptr %5, align 2
  %7 = lshr i16 %6, 4
  %8 = and i16 %7, 1
  %9 = zext i16 %8 to i32
  ret i32 %9
}

; Function Attrs: inlinehint nounwind uwtable
define internal ptr @_PyUnicode_DATA(ptr noundef %0) #2 {
  %2 = alloca ptr, align 8
  %3 = alloca ptr, align 8
  store ptr %0, ptr %3, align 8, !tbaa !4
  %4 = load ptr, ptr %3, align 8, !tbaa !4
  %5 = call i32 @PyUnicode_IS_COMPACT(ptr noundef %4)
  %6 = icmp ne i32 %5, 0
  br i1 %6, label %7, label %10

7:                                                ; preds = %1
  %8 = load ptr, ptr %3, align 8, !tbaa !4
  %9 = call ptr @_PyUnicode_COMPACT_DATA(ptr noundef %8)
  store ptr %9, ptr %2, align 8
  br label %13

10:                                               ; preds = %1
  %11 = load ptr, ptr %3, align 8, !tbaa !4
  %12 = call ptr @_PyUnicode_NONCOMPACT_DATA(ptr noundef %11)
  store ptr %12, ptr %2, align 8
  br label %13

13:                                               ; preds = %10, %7
  %14 = load ptr, ptr %2, align 8
  ret ptr %14
}

; Function Attrs: inlinehint nounwind uwtable
define internal i32 @PyUnicode_MAX_CHAR_VALUE(ptr noundef %0) #2 {
  %2 = alloca i32, align 4
  %3 = alloca ptr, align 8
  %4 = alloca i32, align 4
  %5 = alloca i32, align 4
  store ptr %0, ptr %3, align 8, !tbaa !4
  call void @llvm.lifetime.start.p0(i64 4, ptr %4) #12
  %6 = load ptr, ptr %3, align 8, !tbaa !4
  %7 = call i32 @PyUnicode_IS_ASCII(ptr noundef %6)
  %8 = icmp ne i32 %7, 0
  br i1 %8, label %9, label %10

9:                                                ; preds = %1
  store i32 127, ptr %2, align 4
  store i32 1, ptr %5, align 4
  br label %25

10:                                               ; preds = %1
  %11 = load ptr, ptr %3, align 8, !tbaa !4
  %12 = getelementptr inbounds nuw %struct.PyASCIIObject, ptr %11, i32 0, i32 3
  %13 = getelementptr inbounds nuw %struct.anon.46, ptr %12, i32 0, i32 1
  %14 = load i16, ptr %13, align 2
  %15 = and i16 %14, 7
  %16 = zext i16 %15 to i32
  store i32 %16, ptr %4, align 4, !tbaa !190
  %17 = load i32, ptr %4, align 4, !tbaa !190
  %18 = icmp eq i32 %17, 1
  br i1 %18, label %19, label %20

19:                                               ; preds = %10
  store i32 255, ptr %2, align 4
  store i32 1, ptr %5, align 4
  br label %25

20:                                               ; preds = %10
  %21 = load i32, ptr %4, align 4, !tbaa !190
  %22 = icmp eq i32 %21, 2
  br i1 %22, label %23, label %24

23:                                               ; preds = %20
  store i32 65535, ptr %2, align 4
  store i32 1, ptr %5, align 4
  br label %25

24:                                               ; preds = %20
  store i32 1114111, ptr %2, align 4
  store i32 1, ptr %5, align 4
  br label %25

25:                                               ; preds = %24, %23, %19, %9
  call void @llvm.lifetime.end.p0(i64 4, ptr %4) #12
  %26 = load i32, ptr %2, align 4
  ret i32 %26
}

; Function Attrs: inlinehint nounwind uwtable
define internal i64 @PyUnicode_GET_LENGTH(ptr noundef %0) #2 {
  %2 = alloca ptr, align 8
  store ptr %0, ptr %2, align 8, !tbaa !4
  %3 = load ptr, ptr %2, align 8, !tbaa !4
  %4 = getelementptr inbounds nuw %struct.PyASCIIObject, ptr %3, i32 0, i32 1
  %5 = load i64, ptr %4, align 8, !tbaa !194
  ret i64 %5
}

; Function Attrs: inlinehint nounwind uwtable
define internal i32 @PyType_HasFeature(ptr noundef %0, i64 noundef %1) #2 {
  %3 = alloca ptr, align 8
  %4 = alloca i64, align 8
  %5 = alloca i64, align 8
  store ptr %0, ptr %3, align 8, !tbaa !196
  store i64 %1, ptr %4, align 8, !tbaa !185
  call void @llvm.lifetime.start.p0(i64 8, ptr %5) #12
  %6 = load ptr, ptr %3, align 8, !tbaa !196
  %7 = getelementptr inbounds nuw %struct._typeobject, ptr %6, i32 0, i32 19
  %8 = load i64, ptr %7, align 8, !tbaa !197
  store i64 %8, ptr %5, align 8, !tbaa !185
  %9 = load i64, ptr %5, align 8, !tbaa !185
  %10 = load i64, ptr %4, align 8, !tbaa !185
  %11 = and i64 %9, %10
  %12 = icmp ne i64 %11, 0
  %13 = zext i1 %12 to i32
  call void @llvm.lifetime.end.p0(i64 8, ptr %5) #12
  ret i32 %13
}

; Function Attrs: inlinehint nounwind uwtable
define internal ptr @_Py_TYPE(ptr noundef %0) #2 {
  %2 = alloca ptr, align 8
  store ptr %0, ptr %2, align 8, !tbaa !4
  %3 = load ptr, ptr %2, align 8, !tbaa !4
  %4 = getelementptr inbounds nuw %struct._object, ptr %3, i32 0, i32 1
  %5 = load ptr, ptr %4, align 8, !tbaa !202
  ret ptr %5
}

; Function Attrs: nounwind uwtable
define dso_local ptr @_PyUnicode_Copy(ptr noundef %0) #0 {
  %2 = alloca ptr, align 8
  %3 = alloca ptr, align 8
  %4 = alloca i64, align 8
  %5 = alloca ptr, align 8
  %6 = alloca i32, align 4
  store ptr %0, ptr %3, align 8, !tbaa !4
  call void @llvm.lifetime.start.p0(i64 8, ptr %4) #12
  call void @llvm.lifetime.start.p0(i64 8, ptr %5) #12
  %7 = load ptr, ptr %3, align 8, !tbaa !4
  %8 = call ptr @_Py_TYPE(ptr noundef %7)
  %9 = call i32 @PyType_HasFeature(ptr noundef %8, i64 noundef 268435456)
  %10 = icmp ne i32 %9, 0
  br i1 %10, label %12, label %11

11:                                               ; preds = %1
  call void @_PyErr_BadInternalCall(ptr noundef @.str.8, i32 noundef 2510)
  store ptr null, ptr %2, align 8
  store i32 1, ptr %6, align 4
  br label %36

12:                                               ; preds = %1
  %13 = load ptr, ptr %3, align 8, !tbaa !4
  %14 = call i64 @PyUnicode_GET_LENGTH(ptr noundef %13)
  store i64 %14, ptr %4, align 8, !tbaa !185
  %15 = load i64, ptr %4, align 8, !tbaa !185
  %16 = load ptr, ptr %3, align 8, !tbaa !4
  %17 = call i32 @PyUnicode_MAX_CHAR_VALUE(ptr noundef %16)
  %18 = call ptr @PyUnicode_New(i64 noundef %15, i32 noundef %17)
  store ptr %18, ptr %5, align 8, !tbaa !4
  %19 = load ptr, ptr %5, align 8, !tbaa !4
  %20 = icmp ne ptr %19, null
  br i1 %20, label %22, label %21

21:                                               ; preds = %12
  store ptr null, ptr %2, align 8
  store i32 1, ptr %6, align 4
  br label %36

22:                                               ; preds = %12
  %23 = load ptr, ptr %5, align 8, !tbaa !4
  %24 = call ptr @_PyUnicode_DATA(ptr noundef %23)
  %25 = load ptr, ptr %3, align 8, !tbaa !4
  %26 = call ptr @_PyUnicode_DATA(ptr noundef %25)
  %27 = load i64, ptr %4, align 8, !tbaa !185
  %28 = load ptr, ptr %3, align 8, !tbaa !4
  %29 = getelementptr inbounds nuw %struct.PyASCIIObject, ptr %28, i32 0, i32 3
  %30 = getelementptr inbounds nuw %struct.anon.46, ptr %29, i32 0, i32 1
  %31 = load i16, ptr %30, align 2
  %32 = and i16 %31, 7
  %33 = zext i16 %32 to i64
  %34 = mul i64 %27, %33
  call void @llvm.memcpy.p0.p0.i64(ptr align 1 %24, ptr align 1 %26, i64 %34, i1 false)
  %35 = load ptr, ptr %5, align 8, !tbaa !4
  store ptr %35, ptr %2, align 8
  store i32 1, ptr %6, align 4
  br label %36

36:                                               ; preds = %22, %21, %11
  call void @llvm.lifetime.end.p0(i64 8, ptr %5) #12
  call void @llvm.lifetime.end.p0(i64 8, ptr %4) #12
  %37 = load ptr, ptr %2, align 8
  ret ptr %37
}

; Function Attrs: nounwind uwtable
define internal ptr @unicode_getnewargs(ptr noundef %0, ptr noundef %1) #0 {
  %3 = alloca ptr, align 8
  %4 = alloca ptr, align 8
  %5 = alloca ptr, align 8
  %6 = alloca ptr, align 8
  %7 = alloca i32, align 4
  store ptr %0, ptr %4, align 8, !tbaa !4
  store ptr %1, ptr %5, align 8, !tbaa !4
  call void @llvm.lifetime.start.p0(i64 8, ptr %6) #12
  %8 = load ptr, ptr %4, align 8, !tbaa !4
  %9 = call ptr @_PyUnicode_Copy(ptr noundef %8)
  store ptr %9, ptr %6, align 8, !tbaa !4
  %10 = load ptr, ptr %6, align 8, !tbaa !4
  %11 = icmp ne ptr %10, null
  br i1 %11, label %13, label %12

12:                                               ; preds = %2
  store ptr null, ptr %3, align 8
  store i32 1, ptr %7, align 4
  br label %16

13:                                               ; preds = %2
  %14 = load ptr, ptr %6, align 8, !tbaa !4
  %15 = call ptr (ptr, ...) @Py_BuildValue(ptr noundef @.str.322, ptr noundef %14)
  store ptr %15, ptr %3, align 8
  store i32 1, ptr %7, align 4
  br label %16

16:                                               ; preds = %13, %12
  call void @llvm.lifetime.end.p0(i64 8, ptr %6) #12
  %17 = load ptr, ptr %3, align 8
  ret ptr %17
}