; Function Attrs: nounwind uwtable
define internal ptr @unicode_getnewargs(ptr noundef readonly captures(none) %0, ptr readnone captures(none) %1) #0 {
  %3 = getelementptr i8, ptr %0, i64 8
  %.val.i = load ptr, ptr %3, align 8, !tbaa !187
  %4 = getelementptr i8, ptr %.val.i, i64 168
  %.val12.i = load i64, ptr %4, align 8, !tbaa !188
  %5 = and i64 %.val12.i, 268435456
  %.not.i = icmp eq i64 %5, 0
  br i1 %.not.i, label %6, label %7

6:                                                ; preds = %2
  tail call void @_PyErr_BadInternalCall(ptr noundef nonnull @.str.8, i32 noundef 2510) #41
  br label %_PyUnicode_Copy.exit.thread

7:                                                ; preds = %2
  %8 = getelementptr i8, ptr %0, i64 16
  %.val13.i = load i64, ptr %8, align 8, !tbaa !197
  %9 = getelementptr i8, ptr %0, i64 34
  %.val14.i = load i16, ptr %9, align 2
  %10 = and i16 %.val14.i, 16
  %.not.i.i = icmp eq i16 %10, 0
  br i1 %.not.i.i, label %11, label %PyUnicode_MAX_CHAR_VALUE.exit.i

11:                                               ; preds = %7
  %12 = and i16 %.val14.i, 7
  %switch.selectcmp.i.i = icmp eq i16 %12, 2
  %switch.select.i.i = select i1 %switch.selectcmp.i.i, i32 65535, i32 1114111
  %switch.selectcmp5.i.i = icmp eq i16 %12, 1
  %switch.select6.i.i = select i1 %switch.selectcmp5.i.i, i32 255, i32 %switch.select.i.i
  br label %PyUnicode_MAX_CHAR_VALUE.exit.i

PyUnicode_MAX_CHAR_VALUE.exit.i:                  ; preds = %11, %7
  %.0.i.i = phi i32 [ 127, %7 ], [ %switch.select6.i.i, %11 ]
  %13 = tail call ptr @PyUnicode_New(i64 noundef %.val13.i, i32 noundef %.0.i.i)
  %.not11.i = icmp eq ptr %13, null
  br i1 %.not11.i, label %_PyUnicode_Copy.exit.thread, label %14

14:                                               ; preds = %PyUnicode_MAX_CHAR_VALUE.exit.i
  %15 = getelementptr i8, ptr %13, i64 34
  %.val.i.i = load i16, ptr %15, align 2
  %16 = and i16 %.val.i.i, 8
  %.not.i15.i = icmp eq i16 %16, 0
  br i1 %.not.i15.i, label %19, label %17

17:                                               ; preds = %14
  %18 = and i16 %.val.i.i, 16
  %.not.i.i.i = icmp eq i16 %18, 0
  %.0.v.i.i.i = select i1 %.not.i.i.i, i64 56, i64 40
  %.0.i.i.i = getelementptr i8, ptr %13, i64 %.0.v.i.i.i
  br label %_PyUnicode_DATA.exit.i

19:                                               ; preds = %14
  %20 = getelementptr i8, ptr %13, i64 56
  %.val4.i.i = load ptr, ptr %20, align 8, !tbaa !195
  br label %_PyUnicode_DATA.exit.i

_PyUnicode_DATA.exit.i:                           ; preds = %19, %17
  %.0.i16.i = phi ptr [ %.0.i.i.i, %17 ], [ %.val4.i.i, %19 ]
  %.val.i17.i = load i16, ptr %9, align 2
  %21 = and i16 %.val.i17.i, 8
  %.not.i18.i = icmp eq i16 %21, 0
  br i1 %.not.i18.i, label %24, label %22

22:                                               ; preds = %_PyUnicode_DATA.exit.i
  %23 = and i16 %.val.i17.i, 16
  %.not.i.i19.i = icmp eq i16 %23, 0
  %.0.v.i.i20.i = select i1 %.not.i.i19.i, i64 56, i64 40
  %.0.i.i21.i = getelementptr i8, ptr %0, i64 %.0.v.i.i20.i
  br label %26

24:                                               ; preds = %_PyUnicode_DATA.exit.i
  %25 = getelementptr i8, ptr %0, i64 56
  %.val4.i23.i = load ptr, ptr %25, align 8, !tbaa !195
  br label %26

26:                                               ; preds = %24, %22
  %.0.i22.i = phi ptr [ %.0.i.i21.i, %22 ], [ %.val4.i23.i, %24 ]
  %27 = and i16 %.val.i17.i, 7
  %28 = zext nneg i16 %27 to i64
  %29 = mul i64 %.val13.i, %28
  tail call void @llvm.memcpy.p0.p0.i64(ptr align 1 %.0.i16.i, ptr align 1 %.0.i22.i, i64 %29, i1 false)
  %30 = tail call ptr (ptr, ...) @Py_BuildValue(ptr noundef nonnull @.str.322, ptr noundef nonnull %13) #41
  br label %_PyUnicode_Copy.exit.thread

_PyUnicode_Copy.exit.thread:                      ; preds = %PyUnicode_MAX_CHAR_VALUE.exit.i, %6, %26
  %.0 = phi ptr [ %30, %26 ], [ null, %6 ], [ null, %PyUnicode_MAX_CHAR_VALUE.exit.i ]
  ret ptr %.0
}